; Function Attrs: null_pointer_is_valid sspstrong uwtable
define void @oid_both_from_encoded(ptr noundef %0, ptr noundef readonly captures(none) %1, i32 noundef %2, ptr noundef writeonly captures(none) %3, ptr noundef writeonly captures(none) %4) local_unnamed_addr #0 {
  %6 = icmp sgt i32 %2, 0
  br i1 %6, label %.lr.ph.preheader.i.i, label %._crit_edge.i.i.thread

._crit_edge.i.i.thread:                           ; preds = %5
  %7 = tail call noalias dereferenceable_or_null(4) ptr @wmem_alloc(ptr noundef null, i64 noundef 4) #8
  br label %16

.lr.ph.preheader.i.i:                             ; preds = %5
  %wide.trip.count.i.i = zext nneg i32 %2 to i64
  br label %.lr.ph.i.i

.lr.ph.i.i:                                       ; preds = %.lr.ph.i.i, %.lr.ph.preheader.i.i
  %indvars.iv.i.i = phi i64 [ 0, %.lr.ph.preheader.i.i ], [ %indvars.iv.next.i.i, %.lr.ph.i.i ]
  %.06484.i.i = phi i32 [ 1, %.lr.ph.preheader.i.i ], [ %spec.select.i.i, %.lr.ph.i.i ]
  %8 = getelementptr i8, ptr %1, i64 %indvars.iv.i.i
  %9 = load i8, ptr %8, align 1
  %.not7282.i.i = icmp sgt i8 %9, -1
  %10 = zext i1 %.not7282.i.i to i32
  %spec.select.i.i = add i32 %.06484.i.i, %10
  %indvars.iv.next.i.i = add nuw nsw i64 %indvars.iv.i.i, 1
  %exitcond.not.i.i = icmp eq i64 %indvars.iv.next.i.i, %wide.trip.count.i.i
  br i1 %exitcond.not.i.i, label %._crit_edge.i.i, label %.lr.ph.i.i, !llvm.loop !13

._crit_edge.i.i:                                  ; preds = %.lr.ph.i.i
  %11 = zext i32 %spec.select.i.i to i64
  %12 = shl nuw nsw i64 %11, 2
  %13 = tail call noalias ptr @wmem_alloc(ptr noundef null, i64 noundef %12) #8
  %14 = getelementptr i32, ptr %13, i64 %11
  %15 = icmp eq i32 %spec.select.i.i, 1
  br i1 %15, label %16, label %.lr.ph89.i.i

16:                                               ; preds = %._crit_edge.i.i.thread, %._crit_edge.i.i
  %17 = phi ptr [ %7, %._crit_edge.i.i.thread ], [ %13, %._crit_edge.i.i ]
  store i32 0, ptr %17, align 4
  br label %oid_encoded2subid.exit

.lr.ph89.i.i:                                     ; preds = %._crit_edge.i.i, %39
  %indvars.iv91.i.i = phi i64 [ %indvars.iv.next92.i.i, %39 ], [ 0, %._crit_edge.i.i ]
  %.05588.i.i = phi i64 [ %.156.ph.i.i, %39 ], [ 0, %._crit_edge.i.i ]
  %.05887.i.i = phi i1 [ %.159.ph.i.i, %39 ], [ true, %._crit_edge.i.i ]
  %.06186.i.i = phi ptr [ %.162.ph.i.i, %39 ], [ %13, %._crit_edge.i.i ]
  %18 = getelementptr i8, ptr %1, i64 %indvars.iv91.i.i
  %19 = load i8, ptr %18, align 1
  %20 = shl i64 %.05588.i.i, 7
  %21 = and i8 %19, 127
  %22 = zext nneg i8 %21 to i64
  %23 = or disjoint i64 %20, %22
  %.not.i.i = icmp sgt i8 %19, -1
  br i1 %.not.i.i, label %24, label %39

24:                                               ; preds = %.lr.ph89.i.i
  br i1 %.05887.i.i, label %25, label %32

25:                                               ; preds = %24
  %26 = icmp ugt i64 %23, 39
  %27 = add i64 %23, -40
  %spec.select73.i.i = select i1 %26, i64 %27, i64 %23
  %spec.select74.i.i = zext i1 %26 to i32
  %28 = icmp ugt i64 %spec.select73.i.i, 39
  %29 = select i1 %26, i32 2, i32 1
  %30 = add i64 %spec.select73.i.i, -40
  %.4.i.i = select i1 %28, i64 %30, i64 %spec.select73.i.i
  %.1.i.i = select i1 %28, i32 %29, i32 %spec.select74.i.i
  %31 = getelementptr i8, ptr %.06186.i.i, i64 4
  store i32 %.1.i.i, ptr %.06186.i.i, align 4
  br label %32

32:                                               ; preds = %25, %24
  %.263.i.i = phi ptr [ %31, %25 ], [ %.06186.i.i, %24 ]
  %.257.i.i = phi i64 [ %.4.i.i, %25 ], [ %23, %24 ]
  %33 = icmp uge ptr %.263.i.i, %14
  %34 = icmp ugt i64 %.257.i.i, 4294967295
  %or.cond5.i.i = select i1 %33, i1 true, i1 %34
  br i1 %or.cond5.i.i, label %38, label %35

35:                                               ; preds = %32
  %36 = trunc nuw i64 %.257.i.i to i32
  %37 = getelementptr i8, ptr %.263.i.i, i64 4
  store i32 %36, ptr %.263.i.i, align 4
  br label %39

38:                                               ; preds = %32
  tail call void @wmem_free(ptr noundef null, ptr noundef %13)
  br label %oid_encoded2subid.exit

39:                                               ; preds = %35, %.lr.ph89.i.i
  %.162.ph.i.i = phi ptr [ %.06186.i.i, %.lr.ph89.i.i ], [ %37, %35 ]
  %.159.ph.i.i = phi i1 [ %.05887.i.i, %.lr.ph89.i.i ], [ false, %35 ]
  %.156.ph.i.i = phi i64 [ %23, %.lr.ph89.i.i ], [ 0, %35 ]
  %indvars.iv.next92.i.i = add nuw nsw i64 %indvars.iv91.i.i, 1
  %exitcond94.not.i.i = icmp eq i64 %indvars.iv.next92.i.i, %wide.trip.count.i.i
  br i1 %exitcond94.not.i.i, label %oid_encoded2subid.exit, label %.lr.ph89.i.i, !llvm.loop !14

oid_encoded2subid.exit:                           ; preds = %39, %16, %38
  %.0 = phi ptr [ %17, %16 ], [ null, %38 ], [ %13, %39 ]
  %.052.i.i = phi i32 [ 1, %16 ], [ 0, %38 ], [ %spec.select.i.i, %39 ]
  %40 = tail call ptr @oid_resolved(ptr noundef %0, i32 noundef %.052.i.i, ptr noundef %.0)
  store ptr %40, ptr %3, align 8
  %41 = icmp eq ptr %.0, null
  %42 = icmp eq i32 %.052.i.i, 0
  %or.cond.i.i = or i1 %41, %42
  br i1 %or.cond.i.i, label %43, label %45

43:                                               ; preds = %oid_encoded2subid.exit
  %44 = tail call noalias ptr @wmem_strdup(ptr noundef %0, ptr noundef nonnull @.str.16)
  br label %oid_subid2string.exit

45:                                               ; preds = %oid_encoded2subid.exit
  %46 = tail call noalias ptr @wmem_strbuf_new(ptr noundef %0, ptr noundef nonnull @.str.17)
  br label %47

47:                                               ; preds = %47, %45
  %.015.i.i = phi i32 [ %.052.i.i, %45 ], [ %50, %47 ]
  %.014.i.i = phi ptr [ %.0, %45 ], [ %48, %47 ]
  %48 = getelementptr i8, ptr %.014.i.i, i64 4
  %49 = load i32, ptr %.014.i.i, align 4
  tail call void (ptr, ptr, ...) @wmem_strbuf_append_printf(ptr noundef %46, ptr noundef nonnull @.str.18, i32 noundef %49)
  %50 = add i32 %.015.i.i, -1
  %.not.i.i7 = icmp eq i32 %50, 0
  br i1 %.not.i.i7, label %51, label %47, !llvm.loop !6

51:                                               ; preds = %47
  %52 = tail call i64 @wmem_strbuf_get_len(ptr noundef %46)
  %53 = add i64 %52, -1
  tail call void @wmem_strbuf_truncate(ptr noundef %46, i64 noundef %53)
  %54 = tail call ptr @wmem_strbuf_finalize(ptr noundef %46)
  br label %oid_subid2string.exit

oid_subid2string.exit:                            ; preds = %43, %51
  %.0.i.i = phi ptr [ %44, %43 ], [ %54, %51 ]
  store ptr %.0.i.i, ptr %4, align 8
  tail call void @wmem_free(ptr noundef null, ptr noundef %.0)
  ret void
}